; Function Attrs: mustprogress uwtable
define dso_local noundef ptr @intvector_open(ptr noundef %0, ptr noundef %1, ptr noundef %2, ptr noundef %3) local_unnamed_addr #7 personality ptr @__gxx_personality_v0 {
  %5 = tail call noalias noundef nonnull dereferenceable(80) ptr @_Znwm(i64 noundef 80) #36
  invoke void @_ZN9SResourceC2EP7SRBRootPKcaPK7UStringR10UErrorCode(ptr noundef nonnull align 8 dereferenceable(80) %5, ptr noundef %0, ptr noundef %1, i8 noundef signext 14, ptr noundef %2, ptr noundef nonnull align 4 dereferenceable(4) %3)
          to label %.noexc unwind label %21

.noexc:                                           ; preds = %4
  store ptr getelementptr inbounds nuw inrange(-16, 64) (i8, ptr @_ZTV17IntVectorResource, i64 16), ptr %5, align 8, !tbaa !9
  %6 = getelementptr inbounds nuw i8, ptr %5, i64 56
  store i64 0, ptr %6, align 8, !tbaa !53
  %7 = getelementptr inbounds nuw i8, ptr %5, i64 64
  store i64 2048, ptr %7, align 8, !tbaa !57
  %8 = invoke noalias noundef nonnull dereferenceable(8192) ptr @_Znam(i64 noundef 8192) #36
          to label %11 unwind label %9

9:                                                ; preds = %.noexc
  %10 = landingpad { ptr, i32 }
          cleanup
  tail call void @_ZN9SResourceD2Ev(ptr noundef nonnull align 8 dereferenceable(80) %5) #34
  br label %.body

11:                                               ; preds = %.noexc
  %12 = getelementptr inbounds nuw i8, ptr %5, i64 72
  store ptr %8, ptr %12, align 8, !tbaa !58
  %13 = load i32, ptr %3, align 4
  %14 = icmp sgt i32 %13, 0
  br i1 %14, label %15, label %_ZN6icu_7712LocalPointerI17IntVectorResourceED2Ev.exit

15:                                               ; preds = %11
  store ptr getelementptr inbounds nuw inrange(-16, 64) (i8, ptr @_ZTV17IntVectorResource, i64 16), ptr %5, align 8, !tbaa !9
  tail call void @_ZdaPv(ptr noundef nonnull %8) #35
  store ptr getelementptr inbounds nuw inrange(-16, 64) (i8, ptr @_ZTV9SResource, i64 16), ptr %5, align 8, !tbaa !9
  %16 = getelementptr inbounds nuw i8, ptr %5, i64 40
  invoke void @ustr_deinit(ptr noundef nonnull %16)
          to label %_ZN17IntVectorResourceD0Ev.exit unwind label %17

17:                                               ; preds = %15
  %18 = landingpad { ptr, i32 }
          catch ptr null
  %19 = extractvalue { ptr, i32 } %18, 0
  tail call void @__clang_call_terminate(ptr %19) #31
  unreachable

_ZN17IntVectorResourceD0Ev.exit:                  ; preds = %15
  tail call void @_ZdlPvm(ptr noundef nonnull align 8 dereferenceable(80) %5, i64 noundef 80) #35
  br label %_ZN6icu_7712LocalPointerI17IntVectorResourceED2Ev.exit

_ZN6icu_7712LocalPointerI17IntVectorResourceED2Ev.exit: ; preds = %11, %_ZN17IntVectorResourceD0Ev.exit
  %20 = phi ptr [ null, %_ZN17IntVectorResourceD0Ev.exit ], [ %5, %11 ]
  ret ptr %20

21:                                               ; preds = %4
  %22 = landingpad { ptr, i32 }
          cleanup
  br label %.body

.body:                                            ; preds = %9, %21
  %eh.lpad-body = phi { ptr, i32 } [ %22, %21 ], [ %10, %9 ]
  tail call void @_ZdlPvm(ptr noundef nonnull %5, i64 noundef 80) #35
  resume { ptr, i32 } %eh.lpad-body
}